(dp0
I1
(lp1
S'hold'
p2
aS'obj'
p3
asI2
(lp4
S'stand'
p5
asI3
(lp6
S'sit'
p7
aS'instr'
p8
asI4
(lp9
S'ride'
p10
aS'instr'
p11
asI5
(lp12
S'walk'
p13
asI6
(lp14
S'look'
p15
aS'obj'
p16
asI7
(lp17
S'hit'
p18
aS'instr'
p19
asI8
(lp20
S'eat'
p21
aS'obj'
p22
asI9
(lp23
S'jump'
p24
aS'instr'
p25
asI10
(lp26
S'lay'
p27
aS'instr'
p28
asI11
(lp29
S'talk_on_phone'
p30
aS'instr'
p31
asI12
(lp32
S'carry'
p33
aS'obj'
p34
asI13
(lp35
S'throw'
p36
aS'obj'
p37
asI14
(lp38
S'catch'
p39
aS'obj'
p40
asI15
(lp41
S'cut'
p42
aS'instr'
p43
asI16
(lp44
S'run'
p45
asI17
(lp46
S'work_on_computer'
p47
aS'instr'
p48
asI18
(lp49
S'ski'
p50
aS'instr'
p51
asI19
(lp52
S'surf'
p53
aS'instr'
p54
asI20
(lp55
S'skateboard'
p56
aS'instr'
p57
asI21
(lp58
S'smile'
p59
asI22
(lp60
S'drink'
p61
aS'instr'
p62
asI23
(lp63
S'kick'
p64
aS'obj'
p65
asI24
(lp66
S'point'
p67
aS'instr'
p68
asI25
(lp69
S'read'
p70
aS'obj'
p71
asI26
(lp72
S'snowboard'
p73
aS'instr'
p74
asI27
(lp75
S'hit'
p76
aS'obj'
p77
asI28
(lp78
S'eat'
p79
aS'instr'
p80
asI29
(lp81
S'cut'
p82
ag77
as.