(lp0
(lp1
(lp2
I13285
a(lp3
F475.6907043457031
aF54.1637077331543
aF524.38623046875
aF180.48057556152344
aa(lp4
F461.97113037109375
aF84.26782989501953
aF513.8125610351562
aF120.74456024169922
aaS'carry_obj'
p5
aF0.5032846927642822
aa(lp6
I39528
a(lp7
F113.03956604003906
aF75.51557159423828
aF348.2493896484375
aF456.56146240234375
aa(lp8
F76.30242156982422
aF226.5794219970703
aF185.79110717773438
aF313.31744384765625
aaS'hit_instr'
p9
aF0.8464292883872986
aa(lp10
I47548
a(lp11
F338.5441589355469
aF151.20176696777344
aF435.5532531738281
aF377.3126220703125
aa(lp12
F344.23797607421875
aF237.86935424804688
aF380.6307678222656
aF264.3321228027344
aaS'look_obj'
p13
aF0.5118821859359741
aa(lp14
I96105
a(lp15
F79.11761474609375
aF54.682151794433594
aF118.89231872558594
aF155.81585693359375
aa(lp16
F76.62091064453125
aF74.65532684326172
aF104.253662109375
aF106.7093276977539
aaS'carry_obj'
p17
aF0.5172214508056641
aa(lp18
I99046
a(lp19
F261.3018493652344
aF189.39369201660156
aF321.2580261230469
aF321.7416076660156
aa(lp20
F249.2801971435547
aF263.48492431640625
aF352.3818054199219
aF342.9715576171875
aaS'sit_instr'
p21
aF0.6502881646156311
aa(lp22
I103722
a(lp23
F142.3408966064453
aF72.53665924072266
aF492.6587829589844
aF440.5673828125
aa(lp24
F73.07018280029297
aF331.1319580078125
aF318.5691833496094
aF443.2902526855469
aaS'look_obj'
p25
aF0.5588428378105164
aa(lp26
I113893
a(lp27
F221.13156127929688
aF82.35835266113281
aF302.7979736328125
aF206.5852508544922
aa(lp28
F235.19241333007812
aF160.35614013671875
aF338.9590759277344
aF240.18255615234375
aaS'surf_instr'
p29
aF0.5900954008102417
aa(lp30
I116963
a(lp31
F494.03497314453125
aF133.26345825195312
aF574.3453369140625
aF229.2009735107422
aa(lp32
F545.009033203125
aF188.56385803222656
aF582.8646850585938
aF235.1479949951172
aaS'skateboard_instr'
p33
aF0.6543957591056824
aa(lp34
I121172
a(lp35
F410.9746398925781
aF28.735645294189453
aF565.5945434570312
aF284.90380859375
aa(lp36
F410.8211669921875
aF243.30015563964844
aF626.2542724609375
aF299.9216003417969
aaS'snowboard_instr'
p37
aF0.8648685812950134
aa(lp38
I128770
a(lp39
F1.6803754568099976
aF119.61143493652344
aF90.30457305908203
aF547.3045043945312
aa(lp40
F7.933942794799805
aF470.2698059082031
aF120.47555541992188
aF567.6295776367188
aaS'skateboard_instr'
p41
aF0.6179202795028687
aa(lp42
I137715
a(lp43
F20.151613235473633
aF0.0
aF430.5397644042969
aF421.2409973144531
aa(lp44
F182.59634399414062
aF291.7049255371094
aF339.78955078125
aF393.14056396484375
aaS'hold_obj'
p45
aF0.5636118650436401
aa(lp46
I149726
a(lp47
F285.50823974609375
aF152.33335876464844
aF471.3216857910156
aF324.6309814453125
aa(lp48
F276.3087463378906
aF299.3626403808594
aF450.7938232421875
aF345.128662109375
aaS'look_obj'
p49
aF0.5754973888397217
aa(lp50
I160171
a(lp51
F354.19244384765625
aF120.66860961914062
aF451.05426025390625
aF332.81610107421875
aa(lp52
F332.22332763671875
aF169.19456481933594
aF451.72039794921875
aF445.6514587402344
aaS'hold_obj'
p53
aF0.5187762379646301
aa(lp54
I164955
a(lp55
F124.39148712158203
aF192.04539489746094
aF217.5840301513672
aF312.35235595703125
aa(lp56
F134.99899291992188
aF255.53912353515625
aF239.7733154296875
aF365.86907958984375
aaS'look_obj'
p57
aF0.7446562051773071
aa(lp58
I168335
a(lp59
F172.9785614013672
aF205.58108520507812
aF266.925537109375
aF355.67205810546875
aa(lp60
F140.23934936523438
aF303.04522705078125
aF320.6907653808594
aF404.9508972167969
aaS'look_obj'
p61
aF0.5257350206375122
aa(lp62
I218546
a(lp63
F166.92001342773438
aF187.5052032470703
aF198.71017456054688
aF258.2457275390625
aa(lp64
F169.7783660888672
aF220.8040008544922
aF195.060791015625
aF268.46002197265625
aaS'sit_instr'
p65
aF0.7581827044487
aa(lp66
I218569
a(lp67
F2.363243341445923
aF0.0
aF412.3444519042969
aF435.39715576171875
aa(lp68
F209.798828125
aF267.996337890625
aF340.1455383300781
aF374.46826171875
aaS'hold_obj'
p69
aF0.6264480948448181
aa(lp70
I235394
a(lp71
F247.4194793701172
aF60.46399688720703
aF281.2698059082031
aF138.31253051757812
aa(lp72
F233.427978515625
aF133.6824493408203
aF296.7519226074219
aF144.15440368652344
aaS'ski_instr'
p73
aF0.5803854465484619
aa(lp74
I240841
a(lp75
F116.47627258300781
aF20.11138916015625
aF411.9197692871094
aF584.5826416015625
aa(lp76
F242.6226348876953
aF457.08819580078125
aF325.04034423828125
aF547.3765869140625
aaS'hold_obj'
p77
aF0.8679021596908569
aa(lp78
I243268
a(lp79
F208.08843994140625
aF144.29592895507812
aF466.153076171875
aF474.02899169921875
aa(lp80
F388.25103759765625
aF223.545654296875
aF445.17669677734375
aF285.6752014160156
aaS'hold_obj'
p81
aF0.7725342512130737
aa(lp82
I259585
a(lp83
F316.3195495605469
aF108.60797882080078
aF363.7168273925781
aF191.2244110107422
aa(lp84
F298.01416015625
aF174.7309112548828
aF371.1154479980469
aF205.82102966308594
aaS'ski_instr'
p85
aF0.7313509583473206
aa(lp86
I278028
a(lp87
F208.21824645996094
aF169.04367065429688
aF419.6574401855469
aF401.1195068359375
aa(lp88
F255.5861053466797
aF380.7285461425781
aF477.9142150878906
aF412.42877197265625
aaS'snowboard_instr'
p89
aF0.5907341241836548
aa(lp90
I282129
a(lp91
F122.04216003417969
aF156.04249572753906
aF329.9142150878906
aF346.919189453125
aa(lp92
F88.54447937011719
aF337.812744140625
aF285.248291015625
aF373.59112548828125
aaS'snowboard_instr'
p93
aF0.5942070484161377
aa(lp94
I283107
a(lp95
F339.6744689941406
aF58.00381088256836
aF496.64715576171875
aF170.5482635498047
aa(lp96
F309.1238098144531
aF76.64263916015625
aF408.1947326660156
aF187.9645538330078
aaS'snowboard_instr'
p97
aF0.5810434222221375
aa(lp98
I284543
a(lp99
F167.95693969726562
aF36.902339935302734
aF247.621826171875
aF129.94993591308594
aa(lp100
F163.6007537841797
aF105.5665054321289
aF221.3003692626953
aF145.61524963378906
aaS'skateboard_instr'
p101
aF0.8200517296791077
aa(lp102
I317788
a(lp103
F324.3223571777344
aF114.60845947265625
aF475.65472412109375
aF608.7252197265625
aa(lp104
F341.7516174316406
aF186.43878173828125
aF457.7383728027344
aF406.45184326171875
aaS'carry_obj'
p105
aF0.5797204375267029
aa(lp106
I323153
a(lp107
F110.623291015625
aF96.83516693115234
aF312.0848388671875
aF219.08358764648438
aa(lp108
F109.64518737792969
aF210.87603759765625
aF341.7794189453125
aF239.05360412597656
aaS'jump_instr'
p109
aF0.5643020868301392
aa(lp110
I331186
a(lp111
F315.0248718261719
aF40.9201774597168
aF414.4254150390625
aF153.09332275390625
aa(lp112
F362.17669677734375
aF148.50477600097656
aF419.8057861328125
aF163.23291015625
aaS'jump_instr'
p113
aF0.6103909015655518
aa(lp114
I346399
a(lp115
F100.95817565917969
aF118.99021911621094
aF241.8153076171875
aF302.7754211425781
aa(lp116
F142.8940887451172
aF271.1133728027344
aF241.64051818847656
aF318.5108642578125
aaS'jump_instr'
p117
aF0.7564786672592163
aa(lp118
I350435
a(lp119
F94.80864715576172
aF117.50860595703125
aF168.82196044921875
aF219.56118774414062
aa(lp120
F53.56849670410156
aF138.375
aF194.0220184326172
aF271.92041015625
aaS'sit_instr'
p121
aF0.6263049840927124
aa(lp122
I355440
a(lp123
F2.4981300830841064
aF227.0818328857422
aF160.41610717773438
aF475.5773010253906
aa(lp124
F113.41279602050781
aF279.1507873535156
aF242.092529296875
aF379.4231872558594
aaS'work_on_computer_instr'
p125
aF0.7634797692298889
aa(lp126
I395716
a(lp127
F91.54644012451172
aF385.4900817871094
aF169.044189453125
aF446.08465576171875
aa(lp128
F114.08436584472656
aF419.6956481933594
aF177.77255249023438
aF444.9414367675781
aaS'snowboard_instr'
p129
aF0.5277988314628601
aa(lp130
I396105
a(lp131
F274.3270568847656
aF13.596055030822754
aF333.5931396484375
aF113.24641418457031
aa(lp132
F293.49090576171875
aF104.17395782470703
aF333.5683898925781
aF117.41615295410156
aaS'jump_instr'
p133
aF0.5856771469116211
aa(lp134
I401589
a(lp135
F27.931175231933594
aF78.04946899414062
aF259.2331237792969
aF563.6266479492188
aa(lp136
F235.3948974609375
aF377.04010009765625
aF279.3795471191406
aF414.67266845703125
aaS'cut_instr'
p137
aF0.5883118510246277
aa(lp138
I405401
a(lp139
F302.8013000488281
aF91.12187957763672
aF376.10406494140625
aF351.8747253417969
aa(lp140
F312.3485107421875
aF338.0146484375
aF380.6772766113281
aF424.46875
aaS'ski_instr'
p141
aF0.5625416040420532
aa(lp142
I406608
a(lp143
F135.0417022705078
aF76.35012817382812
aF291.4595947265625
aF299.7054748535156
aa(lp144
F119.56047821044922
aF116.48926544189453
aF361.54864501953125
aF235.3994903564453
aaS'surf_instr'
p145
aF0.5133492946624756
aa(lp146
I407689
a(lp147
F464.81585693359375
aF2.2392737865448
aF543.3088989257812
aF100.96426391601562
aa(lp148
F501.9234619140625
aF58.22983932495117
aF544.9404296875
aF100.363037109375
aaS'jump_instr'
p149
aF0.6907016038894653
aa(lp150
I426640
a(lp151
F255.46466064453125
aF104.55393981933594
aF323.6371154785156
aF233.21095275878906
aa(lp152
F213.1571502685547
aF137.5911407470703
aF362.21722412109375
aF240.02468872070312
aaS'surf_instr'
p153
aF0.5560571551322937
aa(lp154
I450940
a(lp155
F291.6477966308594
aF26.340534210205078
aF424.26611328125
aF297.761962890625
aa(lp156
F244.28599548339844
aF163.746826171875
aF490.43408203125
aF320.6783142089844
aaS'sit_instr'
p157
aF0.6326845288276672
aa(lp158
I455424
a(lp159
F244.59849548339844
aF6.26211404800415
aF396.7517395019531
aF225.56829833984375
aa(lp160
F227.53076171875
aF188.5315704345703
aF407.4830627441406
aF230.03684997558594
aaS'skateboard_instr'
p161
aF0.6757370829582214
aa(lp162
I457011
a(lp163
F449.9249572753906
aF151.24510192871094
aF538.6869506835938
aF381.9052734375
aa(lp164
F402.8186340332031
aF363.3696594238281
aF575.576904296875
aF383.0666809082031
aaS'ski_instr'
p165
aF0.6783877015113831
aa(lp166
I457162
a(lp167
F369.4003601074219
aF109.45201110839844
aF478.0130310058594
aF367.5036315917969
aa(lp168
F393.78326416015625
aF339.4878234863281
aF499.9598388671875
aF390.0613098144531
aaS'skateboard_instr'
p169
aF0.8430076241493225
aa(lp170
I472654
a(lp171
F103.02694702148438
aF111.81906127929688
aF238.23880004882812
aF516.9407348632812
aa(lp172
F58.936988830566406
aF285.7795715332031
aF173.99815368652344
aF471.8209533691406
aaS'sit_instr'
p173
aF0.5371766686439514
aa(lp174
I540439
a(lp175
F20.440380096435547
aF21.33441162109375
aF398.87933349609375
aF557.6780395507812
aa(lp176
F333.31011962890625
aF486.9825134277344
aF413.9950256347656
aF563.3486328125
aaS'kick_obj'
p177
aF0.5109519362449646
aa(lp178
I571640
a(lp179
F339.8359375
aF77.06437683105469
aF518.9895629882812
aF359.8667907714844
aa(lp180
F305.02215576171875
aF167.996337890625
aF398.921875
aF230.4133758544922
aaS'hit_instr'
p181
aF0.7275516986846924
aa(lp182
I573827
a(lp183
F129.19686889648438
aF227.2126007080078
aF241.92950439453125
aF386.9854736328125
aa(lp184
F111.25728607177734
aF380.0101623535156
aF245.9762420654297
aF395.0445556640625
aaS'ski_instr'
p185
aF0.6093317866325378
aa(lp186
I576931
a(lp187
F56.782657623291016
aF259.0163879394531
aF181.07737731933594
aF606.865966796875
aa(lp188
F69.3331298828125
aF371.7174987792969
aF136.33445739746094
aF444.4739074707031
aaS'carry_obj'
p189
aF0.62559974193573
aaa(lp190
(lp191
I165
a(lp192
F248.6300048828125
aF108.13999938964844
aF630.7999877929688
aF535.0
aa(lp193
F68.80999755859375
aF126.1500015258789
aF367.20001220703125
aF411.260009765625
aaS'hold_obj'
p194
aF1.0
aa(lp195
I165
a(lp196
F6.019999980926514
aF24.09000015258789
aF359.1400146484375
aF527.77001953125
aa(lp197
F160.7100067138672
aF173.4499969482422
aF250.38999938964844
aF389.6300048828125
aaS'hold_obj'
p198
aF1.0
aa(lp199
I165
a(lp200
F248.6300048828125
aF108.13999938964844
aF630.7999877929688
aF535.0
aa(lp201
F160.7100067138672
aF173.4499969482422
aF250.38999938964844
aF389.6300048828125
aaS'look_obj'
p202
aF1.0
aa(lp203
I165
a(lp204
F248.6300048828125
aF108.13999938964844
aF630.7999877929688
aF535.0
aa(lp205
F68.80999755859375
aF126.1500015258789
aF367.20001220703125
aF411.260009765625
aaS'cut_instr'
p206
aF1.0
aa(lp207
I165
a(lp208
F248.6300048828125
aF108.13999938964844
aF630.7999877929688
aF535.0
aa(lp209
F160.7100067138672
aF173.4499969482422
aF250.38999938964844
aF389.6300048828125
aaS'cut_obj'
p210
aF1.0
aa(lp211
I625
a(lp212
F404.0
aF204.1199951171875
aF523.0
aF417.1199951171875
aa(lp213
F272.5299987792969
aF111.91999816894531
aF305.2799987792969
aF132.5500030517578
aaS'look_obj'
p214
aF1.0
aa(lp215
I625
a(lp216
F185.4199981689453
aF233.52000427246094
aF276.760009765625
aF418.94000244140625
aa(lp217
F272.5299987792969
aF111.91999816894531
aF305.2799987792969
aF132.5500030517578
aaS'look_obj'
p218
aF1.0
aa(lp219
I625
a(lp220
F404.0
aF204.1199951171875
aF523.0
aF417.1199951171875
aa(lp221
F272.5299987792969
aF111.91999816894531
aF305.2799987792969
aF132.5500030517578
aaS'catch_obj'
p222
aF1.0
aa(lp223
I1011
a(lp224
F228.91000366210938
aF204.47000122070312
aF272.1700134277344
aF265.3900146484375
aa(lp225
F199.6999969482422
aF252.44000244140625
aF229.32000732421875
aF282.8900146484375
aaS'hold_obj'
p226
aF1.0
aa(lp227
I1011
a(lp228
F190.1300048828125
aF380.0400085449219
aF243.41000366210938
aF447.45001220703125
aa(lp229
F207.6999969482422
aF426.70001220703125
aF234.9199981689453
aF448.2699890136719
aaS'hold_obj'
p230
aF1.0
aa(lp231
I1011
a(lp232
F458.4200134277344
aF273.3299865722656
aF514.7999877929688
aF345.6499938964844
aa(lp233
F426.760009765625
aF311.1400146484375
aF479.2900085449219
aF345.3599853515625
aaS'hold_obj'
p234
aF1.0
aa(lp235
I1011
a(lp236
F458.4200134277344
aF273.3299865722656
aF514.7999877929688
aF345.6499938964844
aa(lp237
F475.4200134277344
aF189.52000427246094
aF504.7900085449219
aF258.3900146484375
aaS'look_obj'
p238
aF1.0
aa(lp239
I1011
a(lp240
F228.91000366210938
aF204.47000122070312
aF272.1700134277344
aF265.3900146484375
aa(lp241
F199.6999969482422
aF252.44000244140625
aF229.32000732421875
aF282.8900146484375
aaS'carry_obj'
p242
aF1.0
aa(lp243
I1011
a(lp244
F190.1300048828125
aF380.0400085449219
aF243.41000366210938
aF447.45001220703125
aa(lp245
F207.6999969482422
aF426.70001220703125
aF234.9199981689453
aF448.2699890136719
aaS'carry_obj'
p246
aF1.0
aa(lp247
I1011
a(lp248
F458.4200134277344
aF273.3299865722656
aF514.7999877929688
aF345.6499938964844
aa(lp249
F426.760009765625
aF311.1400146484375
aF479.2900085449219
aF345.3599853515625
aaS'carry_obj'
p250
aF1.0
aa(lp251
I1011
a(lp252
F101.3499984741211
aF171.8000030517578
aF153.6300048828125
aF246.69000244140625
aa(lp253
F88.87000274658203
aF189.86000061035156
aF112.43000030517578
aF202.41000366210938
aaS'carry_obj'
p254
aF1.0
aa(lp255
I1183
a(lp256
F22.450000762939453
aF39.54999923706055
aF228.83999633789062
aF472.5899963378906
aa(lp257
F557.6599731445312
aF1.0800000429153442
aF633.25
aF49.70000076293945
aaS'look_obj'
p258
aF1.0
aa(lp259
I1183
a(lp260
F22.450000762939453
aF39.54999923706055
aF228.83999633789062
aF472.5899963378906
aa(lp261
F557.6599731445312
aF1.0800000429153442
aF633.25
aF49.70000076293945
aaS'throw_obj'
p262
aF1.0
aa(lp263
I1580
a(lp264
F164.77999877929688
aF133.22999572753906
aF272.4599914550781
aF402.760009765625
aa(lp265
F173.89999389648438
aF399.739990234375
aF249.55999755859375
aF478.2900085449219
aaS'ski_instr'
p266
aF1.0
aa(lp267
I1580
a(lp268
F392.75
aF143.77000427246094
aF531.22998046875
aF409.6400146484375
aa(lp269
F424.1300048828125
aF407.4100036621094
aF506.2200012207031
aF478.8699951171875
aaS'ski_instr'
p270
aF1.0
aa(lp271
I1756
a(lp272
F0.0
aF103.55000305175781
aF422.9100036621094
aF384.0799865722656
aa(lp273
F115.8499984741211
aF276.8599853515625
aF269.8900146484375
aF371.9599914550781
aaS'work_on_computer_instr'
p274
aF1.0
aa(lp275
I2470
a(lp276
F413.5899963378906
aF154.5399932861328
aF545.72998046875
aF322.8599853515625
aa(lp277
F406.07000732421875
aF280.42999267578125
aF443.45001220703125
aF341.94000244140625
aaS'snowboard_instr'
p278
aF1.0
aa(lp279
I2543
a(lp280
F375.95001220703125
aF121.45999908447266
aF548.4600219726562
aF283.3699951171875
aa(lp281
F0.9599999785423279
aF89.29000091552734
aF639.0
aF422.0299987792969
aaS'lay_instr'
p282
aF1.0
aa(lp283
I3375
a(lp284
F21.09000015258789
aF122.48999786376953
aF96.93000030517578
aF249.5500030517578
aa(lp285
F418.7200012207031
aF206.0500030517578
aF438.5
aF224.97999572753906
aaS'kick_obj'
p286
aF1.0
aa(lp287
I4180
a(lp288
F159.27999877929688
aF35.52000045776367
aF486.5299987792969
aF453.1700134277344
aa(lp289
F371.6000061035156
aF360.6600036621094
aF415.9700012207031
aF405.8500061035156
aaS'eat_obj'
p290
aF1.0
aa(lp291
I4239
a(lp292
F121.87000274658203
aF43.72999954223633
aF302.2900085449219
aF196.22999572753906
aa(lp293
F123.93000030517578
aF107.33000183105469
aF178.0
aF195.4199981689453
aaS'snowboard_instr'
p294
aF1.0
aa(lp295
I4489
a(lp296
F182.94000244140625
aF200.9499969482422
aF225.16000366210938
aF275.760009765625
aa(lp297
F173.89999389648438
aF271.70001220703125
aF230.1999969482422
aF340.17999267578125
aaS'carry_obj'
p298
aF1.0
aa(lp299
I5632
a(lp300
F294.04998779296875
aF119.45999908447266
aF637.9199829101562
aF468.7300109863281
aa(lp301
F0.0
aF202.5399932861328
aF598.4500122070312
aF473.32000732421875
aaS'sit_instr'
p302
aF1.0
aa(lp303
I5740
a(lp304
F88.8499984741211
aF219.35000610351562
aF201.13999938964844
aF349.57000732421875
aa(lp305
F0.0
aF82.69999694824219
aF125.48999786376953
aF373.5899963378906
aaS'surf_instr'
p306
aF1.0
aa(lp307
I5916
a(lp308
F142.3000030517578
aF118.30000305175781
aF231.1199951171875
aF217.75999450683594
aa(lp309
F137.3300018310547
aF102.66999816894531
aF264.3299865722656
aF131.0
aaS'jump_instr'
p310
aF1.0
aa(lp311
I5962
a(lp312
F116.11000061035156
aF159.1300048828125
aF326.2099914550781
aF420.0799865722656
aa(lp313
F123.54000091552734
aF391.7699890136719
aF179.6300048828125
aF426.0
aaS'sit_instr'
p314
aF1.0
aa(lp315
I5962
a(lp316
F116.11000061035156
aF159.1300048828125
aF326.2099914550781
aF420.0799865722656
aa(lp317
F230.5500030517578
aF238.85000610351562
aF255.0
aF284.3900146484375
aaS'eat_instr'
p318
aF1.0
aa(lp319
I6151
a(lp320
F0.9599999785423279
aF0.9599999785423279
aF617.9099731445312
aF259.0400085449219
aa(lp321
F331.0400085449219
aF66.44999694824219
aF471.1000061035156
aF149.88999938964844
aaS'eat_obj'
p322
aF1.0
aa(lp323
I6151
a(lp324
F0.9599999785423279
aF0.9599999785423279
aF617.9099731445312
aF259.0400085449219
aa(lp325
F242.1199951171875
aF10.1899995803833
aF382.05999755859375
aF56.58000183105469
aaS'eat_instr'
p326
aF1.0
aa(lp327
I6151
a(lp328
F0.9599999785423279
aF0.9599999785423279
aF617.9099731445312
aF259.0400085449219
aa(lp329
F242.1199951171875
aF10.1899995803833
aF382.05999755859375
aF56.58000183105469
aaS'cut_instr'
p330
aF1.0
aa(lp331
I6151
a(lp332
F0.9599999785423279
aF0.9599999785423279
aF617.9099731445312
aF259.0400085449219
aa(lp333
F331.0400085449219
aF66.44999694824219
aF471.1000061035156
aF149.88999938964844
aaS'cut_obj'
p334
aF1.0
aa(lp335
I6380
a(lp336
F123.0999984741211
aF93.7699966430664
aF235.5800018310547
aF379.3599853515625
aa(lp337
F342.8900146484375
aF181.38999938964844
aF431.6300048828125
aF213.11000061035156
aaS'throw_obj'
p338
aF1.0
aa(lp339
I7603
a(lp340
F358.0299987792969
aF1.909999966621399
aF639.0
aF422.1300048828125
aa(lp341
F220.17999267578125
aF174.22999572753906
aF377.1300048828125
aF319.70001220703125
aaS'work_on_computer_instr'
p342
aF1.0
aa(lp343
I7627
a(lp344
F195.22000122070312
aF27.209999084472656
aF352.5899963378906
aF295.739990234375
aa(lp345
F275.19000244140625
aF261.1499938964844
aF315.3399963378906
aF309.6300048828125
aaS'jump_instr'
p346
aF1.0
aa(lp347
I8309
a(lp348
F0.0
aF92.04000091552734
aF423.0
aF639.0
aa(lp349
F113.7699966430664
aF270.8299865722656
aF139.1999969482422
aF323.2200012207031
aaS'talk_on_phone_instr'
p350
aF1.0
aa(lp351
I9408
a(lp352
F396.69000244140625
aF177.67999267578125
aF443.8599853515625
aF339.6700134277344
aa(lp353
F355.30999755859375
aF323.2799987792969
aF419.8500061035156
aF353.42999267578125
aaS'ski_instr'
p354
aF1.0
aa(lp355
I9408
a(lp356
F443.1400146484375
aF156.00999450683594
aF515.9500122070312
aF349.7099914550781
aa(lp357
F390.6199951171875
aF344.29998779296875
aF474.8599853515625
aF377.6600036621094
aaS'ski_instr'
p358
aF1.0
aa(lp359
I9656
a(lp360
F365.6600036621094
aF120.80999755859375
aF637.5599975585938
aF455.2699890136719
aa(lp361
F355.1199951171875
aF297.760009765625
aF445.010009765625
aF382.489990234375
aaS'work_on_computer_instr'
p362
aF1.0
aa(lp363
I9820
a(lp364
F318.6700134277344
aF42.290000915527344
aF407.1099853515625
aF131.67999267578125
aa(lp365
F342.29998779296875
aF87.05000305175781
aF418.4700012207031
aF164.89999389648438
aaS'sit_instr'
p366
aF1.0
aa(lp367
I9820
a(lp368
F318.6700134277344
aF42.290000915527344
aF407.1099853515625
aF131.67999267578125
aa(lp369
F217.3000030517578
aF117.94999694824219
aF440.6099853515625
aF380.0
aaS'ride_instr'
p370
aF1.0
aa(lp371
I9836
a(lp372
F113.61000061035156
aF112.55999755859375
aF347.3399963378906
aF308.9700012207031
aa(lp373
F95.80999755859375
aF162.27000427246094
aF144.75999450683594
aF241.10000610351562
aaS'jump_instr'
p374
aF1.0
aa(lp375
I9836
a(lp376
F113.61000061035156
aF112.55999755859375
aF347.3399963378906
aF308.9700012207031
aa(lp377
F95.80999755859375
aF162.27000427246094
aF144.75999450683594
aF241.10000610351562
aaS'skateboard_instr'
p378
aF1.0
aa(lp379
I9878
a(lp380
F288.6099853515625
aF21.190000534057617
aF526.780029296875
aF337.8500061035156
aa(lp381
F116.45999908447266
aF314.8699951171875
aF535.1500244140625
aF461.80999755859375
aaS'cut_obj'
p382
aF1.0
aa(lp383
I9878
a(lp384
F216.5399932861328
aF56.5099983215332
aF348.6400146484375
aF320.6499938964844
aa(lp385
F116.45999908447266
aF314.8699951171875
aF535.1500244140625
aF461.80999755859375
aaS'cut_obj'
p386
aF1.0
aa(lp387
I9878
a(lp388
F136.64999389648438
aF83.37999725341797
aF285.0299987792969
aF325.55999755859375
aa(lp389
F116.45999908447266
aF314.8699951171875
aF535.1500244140625
aF461.80999755859375
aaS'cut_obj'
p390
aF1.0
aa(lp391
I9951
a(lp392
F142.6999969482422
aF150.63999938964844
aF331.0
aF487.8399963378906
aa(lp393
F240.77000427246094
aF478.7799987792969
aF331.0
aF499.0
aaS'skateboard_instr'
p394
aF1.0
aa(lp395
I10097
a(lp396
F334.9200134277344
aF1.6699999570846558
aF461.739990234375
aF115.55000305175781
aa(lp397
F319.739990234375
aF99.88999938964844
aF446.1499938964844
aF246.85000610351562
aaS'jump_instr'
p398
aF1.0
aa(lp399
I10097
a(lp400
F334.9200134277344
aF1.6699999570846558
aF461.739990234375
aF115.55000305175781
aa(lp401
F319.739990234375
aF99.88999938964844
aF446.1499938964844
aF246.85000610351562
aaS'skateboard_instr'
p402
aF1.0
aa(lp403
I10579
a(lp404
F66.01000213623047
aF15.210000038146973
aF504.1099853515625
aF575.2899780273438
aa(lp405
F143.3699951171875
aF441.260009765625
aF251.32000732421875
aF582.9400024414062
aaS'drink_instr'
p406
aF1.0
aa(lp407
I10787
a(lp408
F39.0099983215332
aF98.9800033569336
aF639.0
aF365.260009765625
aa(lp409
F0.0
aF143.42999267578125
aF639.0
aF424.2799987792969
aaS'lay_instr'
p410
aF1.0
aa(lp411
I10787
a(lp412
F39.0099983215332
aF98.9800033569336
aF639.0
aF365.260009765625
aa(lp413
F32.2599983215332
aF196.99000549316406
aF131.74000549316406
aF269.3900146484375
aaS'read_obj'
p414
aF1.0
aa(lp415
I11091
a(lp416
F71.66999816894531
aF212.9199981689453
aF631.4600219726562
aF425.0
aa(lp417
F0.0
aF194.9199981689453
aF544.2899780273438
aF426.3699951171875
aaS'sit_instr'
p418
aF1.0
aa(lp419
I11091
a(lp420
F71.66999816894531
aF212.9199981689453
aF631.4600219726562
aF425.0
aa(lp421
F0.0
aF194.9199981689453
aF544.2899780273438
aF426.3699951171875
aaS'lay_instr'
p422
aF1.0
aa(lp423
I11091
a(lp424
F71.66999816894531
aF212.9199981689453
aF631.4600219726562
aF425.0
aa(lp425
F343.7200012207031
aF218.22999572753906
aF481.45001220703125
aF343.6700134277344
aaS'work_on_computer_instr'
p426
aF1.0
aa(lp427
I11619
a(lp428
F0.0
aF39.52000045776367
aF204.25
aF332.0
aa(lp429
F0.5400000214576721
aF96.0999984741211
aF238.8300018310547
aF332.0
aaS'sit_instr'
p430
aF1.0
aa(lp431
I11619
a(lp432
F0.0
aF39.52000045776367
aF204.25
aF332.0
aa(lp433
F0.0
aF2.240000009536743
aF499.0
aF327.510009765625
aaS'ride_instr'
p434
aF1.0
aa(lp435
I11619
a(lp436
F276.1300048828125
aF27.690000534057617
aF497.3800048828125
aF326.760009765625
aa(lp437
F0.0
aF2.240000009536743
aF499.0
aF327.510009765625
aaS'ride_instr'
p438
aF1.0
aa(lp439
I11680
a(lp440
F434.7799987792969
aF140.88999938964844
aF539.4000244140625
aF249.5399932861328
aa(lp441
F431.4800109863281
aF222.6199951171875
aF497.7699890136719
aF248.5800018310547
aaS'skateboard_instr'
p442
aF1.0
aa(lp443
I12916
a(lp444
F266.9100036621094
aF302.2200012207031
aF383.2099914550781
aF477.510009765625
aa(lp445
F237.3800048828125
aF222.25
aF351.1499938964844
aF257.3800048828125
aaS'throw_obj'
p446
aF1.0
aa(lp447
I13908
a(lp448
F38.560001373291016
aF0.0
aF638.1099853515625
aF427.0
aa(lp449
F265.04998779296875
aF204.10000610351562
aF369.6000061035156
aF370.9800109863281
aaS'eat_obj'
p450
aF1.0
aa(lp451
I14230
a(lp452
F0.8700000047683716
aF49.70000076293945
aF110.5999984741211
aF325.9700012207031
aa(lp453
F11.729999542236328
aF315.8699951171875
aF79.83999633789062
aF335.70001220703125
aaS'ski_instr'
p454
aF1.0
aa(lp455
I15257
a(lp456
F1.4299999475479126
aF86.02999877929688
aF165.4600067138672
aF545.6500244140625
aa(lp457
F131.72999572753906
aF197.07000732421875
aF229.67999267578125
aF230.3000030517578
aaS'throw_obj'
p458
aF1.0
aa(lp459
I15919
a(lp460
F284.0799865722656
aF190.9499969482422
aF413.8999938964844
aF339.4599914550781
aa(lp461
F295.67999267578125
aF346.239990234375
aF360.6499938964844
aF358.44000244140625
aaS'skateboard_instr'
p462
aF1.0
aa(lp463
I16346
a(lp464
F13.600000381469727
aF149.35000610351562
aF55.11000061035156
aF272.19000244140625
aa(lp465
F0.7300000190734863
aF224.2100067138672
aF68.37999725341797
aF292.6000061035156
aaS'ride_instr'
p466
aF1.0
aa(lp467
I16346
a(lp468
F34.02000045776367
aF156.52999877929688
aF95.4800033569336
aF283.760009765625
aa(lp469
F0.7300000190734863
aF224.2100067138672
aF68.37999725341797
aF292.6000061035156
aaS'ride_instr'
p470
aF1.0
aa(lp471
I17356
a(lp472
F1.440000057220459
aF12.970000267028809
aF425.0
aF631.7899780273438
aa(lp473
F193.52000427246094
aF331.489990234375
aF308.9599914550781
aF415.6300048828125
aaS'eat_obj'
p474
aF1.0
aa(lp475
I17559
a(lp476
F117.6500015258789
aF1.690000057220459
aF505.5199890136719
aF424.1300048828125
aa(lp477
F280.3500061035156
aF119.30999755859375
aF410.8399963378906
aF175.25
aaS'read_obj'
p478
aF1.0
aa(lp479
I17587
a(lp480
F327.0299987792969
aF45.630001068115234
aF637.8499755859375
aF418.25
aa(lp481
F261.57000732421875
aF346.3299865722656
aF352.989990234375
aF403.739990234375
aaS'eat_obj'
p482
aF1.0
aa(lp483
I17914
a(lp484
F2.5299999713897705
aF60.41999816894531
aF90.01000213623047
aF367.8399963378906
aa(lp485
F155.89999389648438
aF51.400001525878906
aF406.8699951171875
aF374.0
aaS'work_on_computer_instr'
p486
aF1.0
aa(lp487
I18466
a(lp488
F275.9599914550781
aF25.18000030517578
aF420.55999755859375
aF369.55999755859375
aa(lp489
F304.8399963378906
aF116.38999938964844
aF335.1000061035156
aF167.3800048828125
aaS'drink_instr'
p490
aF1.0
aa(lp491
I18466
a(lp492
F19.43000030517578
aF27.450000762939453
aF188.19000244140625
aF374.0
aa(lp493
F101.54000091552734
aF76.94000244140625
aF130.83999633789062
aF121.41000366210938
aaS'drink_instr'
p494
aF1.0
aa(lp495
I19123
a(lp496
F84.66000366210938
aF364.4800109863281
aF245.82000732421875
aF628.9600219726562
aa(lp497
F163.3699951171875
aF483.07000732421875
aF192.75999450683594
aF596.219970703125
aaS'drink_instr'
p498
aF1.0
aa(lp499
I19123
a(lp500
F230.94000244140625
aF102.54000091552734
aF381.489990234375
aF487.8800048828125
aa(lp501
F271.44000244140625
aF208.86000061035156
aF287.9599914550781
aF274.57000732421875
aaS'drink_instr'
p502
aF1.0
aa(lp503
I20575
a(lp504
F166.8300018310547
aF24.450000762939453
aF383.0
aF628.9299926757812
aa(lp505
F309.8699951171875
aF79.3499984741211
aF320.7300109863281
aF104.41000366210938
aaS'talk_on_phone_instr'
p506
aF1.0
aa(lp507
I20599
a(lp508
F132.02000427246094
aF4.300000190734863
aF426.0
aF459.6300048828125
aa(lp509
F129.02000427246094
aF202.42999267578125
aF200.6199951171875
aF349.44000244140625
aaS'cut_instr'
p510
aF1.0
aa(lp511
I21786
a(lp512
F204.49000549316406
aF86.5199966430664
aF364.1700134277344
aF377.6499938964844
aa(lp513
F227.92999267578125
aF132.39999389648438
aF243.82000732421875
aF148.0500030517578
aaS'talk_on_phone_instr'
p514
aF1.0
aa(lp515
I24457
a(lp516
F423.2200012207031
aF45.54999923706055
aF539.6599731445312
aF199.6699981689453
aa(lp517
F450.2099914550781
aF141.7100067138672
aF638.1599731445312
aF290.1400146484375
aaS'read_obj'
p518
aF1.0
aa(lp519
I25425
a(lp520
F10.319999694824219
aF34.83000183105469
aF567.8400268554688
aF464.6499938964844
aa(lp521
F284.70001220703125
aF264.04998779296875
aF437.5400085449219
aF415.9200134277344
aaS'eat_instr'
p522
aF1.0
aa(lp523
I25539
a(lp524
F86.91999816894531
aF200.2100067138672
aF311.739990234375
aF562.989990234375
aa(lp525
F66.04000091552734
aF326.239990234375
aF157.77999877929688
aF378.8299865722656
aaS'read_obj'
p526
aF1.0
aa(lp527
I25777
a(lp528
F223.82000732421875
aF164.8300018310547
aF478.5400085449219
aF627.8499755859375
aa(lp529
F466.6099853515625
aF25.959999084472656
aF529.6400146484375
aF90.47000122070312
aaS'kick_obj'
p530
aF1.0
aa(lp531
I25777
a(lp532
F318.67999267578125
aF153.4499969482422
aF476.3900146484375
aF624.239990234375
aa(lp533
F466.6099853515625
aF25.959999084472656
aF529.6400146484375
aF90.47000122070312
aaS'kick_obj'
p534
aF1.0
aa(lp535
I26132
a(lp536
F55.70000076293945
aF33.86000061035156
aF211.97000122070312
aF464.25
aa(lp537
F161.1300048828125
aF55.34000015258789
aF169.72000122070312
aF74.01000213623047
aaS'talk_on_phone_instr'
p538
aF1.0
aa(lp539
I26552
a(lp540
F263.260009765625
aF104.3499984741211
aF427.8699951171875
aF297.67999267578125
aa(lp541
F248.27999877929688
aF286.5
aF390.7900085449219
aF298.75
aaS'jump_instr'
p542
aF1.0
aa(lp543
I26552
a(lp544
F263.260009765625
aF104.3499984741211
aF427.8699951171875
aF297.67999267578125
aa(lp545
F248.27999877929688
aF286.5
aF390.7900085449219
aF298.75
aaS'snowboard_instr'
p546
aF1.0
aa(lp547
I26655
a(lp548
F18.700000762939453
aF3.450000047683716
aF439.6499938964844
aF464.9800109863281
aa(lp549
F251.80999755859375
aF412.1700134277344
aF383.0799865722656
aF494.7900085449219
aaS'eat_instr'
p550
aF1.0
aa(lp551
I26655
a(lp552
F18.700000762939453
aF3.450000047683716
aF439.6499938964844
aF464.9800109863281
aa(lp553
F134.52000427246094
aF376.010009765625
aF250.58999633789062
aF483.30999755859375
aaS'cut_instr'
p554
aF1.0
aa(lp555
I27149
a(lp556
F13.390000343322754
aF54.68000030517578
aF320.9700012207031
aF238.4600067138672
aa(lp557
F485.8900146484375
aF156.77999877929688
aF635.1199951171875
aF419.20001220703125
aaS'point_instr'
p558
aF1.0
aa(lp559
I27149
a(lp560
F0.0
aF172.17999267578125
aF315.8500061035156
aF479.0
aa(lp561
F485.8900146484375
aF156.77999877929688
aF635.1199951171875
aF419.20001220703125
aaS'point_instr'
p562
aF1.0
aa(lp563
I30094
a(lp564
F100.95999908447266
aF90.08000183105469
aF442.30999755859375
aF426.0
aa(lp565
F150.97999572753906
aF150.77999877929688
aF232.47000122070312
aF191.35000610351562
aaS'talk_on_phone_instr'
p566
aF1.0
aa(lp567
I33130
a(lp568
F0.0
aF1.9500000476837158
aF225.72000122070312
aF199.44000244140625
aa(lp569
F154.99000549316406
aF41.75
aF370.9700012207031
aF108.55000305175781
aaS'cut_instr'
p570
aF1.0
aa(lp571
I34340
a(lp572
F0.9599999785423279
aF59.52000045776367
aF258.2799987792969
aF410.3399963378906
aa(lp573
F270.69000244140625
aF237.66000366210938
aF369.4800109863281
aF277.1600036621094
aaS'throw_obj'
p574
aF1.0
aa(lp575
I34340
a(lp576
F0.9599999785423279
aF59.52000045776367
aF258.2799987792969
aF410.3399963378906
aa(lp577
F270.69000244140625
aF237.66000366210938
aF369.4800109863281
aF277.1600036621094
aaS'catch_obj'
p578
aF1.0
aa(lp579
I34378
a(lp580
F427.2300109863281
aF174.38999938964844
aF531.3099975585938
aF365.9700012207031
aa(lp581
F345.32000732421875
aF158.6300048828125
aF372.239990234375
aF170.6199951171875
aaS'catch_obj'
p582
aF1.0
aa(lp583
I34487
a(lp584
F227.25999450683594
aF111.88999938964844
aF342.75
aF358.4200134277344
aa(lp585
F270.7099914550781
aF228.99000549316406
aF319.79998779296875
aF243.41000366210938
aaS'read_obj'
p586
aF1.0
aa(lp587
I35817
a(lp588
F414.5299987792969
aF97.13999938964844
aF540.489990234375
aF422.19000244140625
aa(lp589
F46.91999816894531
aF199.25
aF153.16000366210938
aF276.7699890136719
aaS'point_instr'
p590
aF1.0
aa(lp591
I39080
a(lp592
F221.6199951171875
aF129.25999450683594
aF335.2300109863281
aF245.47999572753906
aa(lp593
F282.69000244140625
aF227.02999877929688
aF314.8500061035156
aF234.69000244140625
aaS'eat_instr'
p594
aF1.0
aa(lp595
I39191
a(lp596
F417.0400085449219
aF107.93000030517578
aF565.1500244140625
aF402.04998779296875
aa(lp597
F297.3399963378906
aF343.57000732421875
aF534.6199951171875
aF406.3500061035156
aaS'snowboard_instr'
p598
aF1.0
aa(lp599
I42089
a(lp600
F260.010009765625
aF80.63999938964844
aF369.4599914550781
aF346.489990234375
aa(lp601
F116.05999755859375
aF325.5799865722656
aF521.75
aF363.5899963378906
aaS'surf_instr'
p602
aF1.0
aa(lp603
I43206
a(lp604
F254.47000122070312
aF87.27999877929688
aF346.05999755859375
aF342.5899963378906
aa(lp605
F354.29998779296875
aF61.68000030517578
aF391.30999755859375
aF69.48999786376953
aaS'catch_obj'
p606
aF1.0
aa(lp607
I43226
a(lp608
F89.04000091552734
aF90.11000061035156
aF289.0899963378906
aF370.5799865722656
aa(lp609
F202.5500030517578
aF191.52999877929688
aF233.91000366210938
aF235.44000244140625
aaS'catch_obj'
p610
aF1.0
aa(lp611
I43968
a(lp612
F138.80999755859375
aF57.439998626708984
aF341.7099914550781
aF287.1499938964844
aa(lp613
F168.22999572753906
aF279.42999267578125
aF313.75
aF303.6300048828125
aaS'snowboard_instr'
p614
aF1.0
aa(lp615
I45552
a(lp616
F383.95001220703125
aF153.83999633789062
aF502.6700134277344
aF354.5799865722656
aa(lp617
F224.57000732421875
aF75.31999969482422
aF252.6199951171875
aF106.54000091552734
aaS'kick_obj'
p618
aF1.0
aa(lp619
I47981
a(lp620
F147.16000366210938
aF48.459999084472656
aF297.69000244140625
aF257.44000244140625
aa(lp621
F309.739990234375
aF228.82000732421875
aF337.05999755859375
aF254.75999450683594
aaS'kick_obj'
p622
aF1.0
aa(lp623
I48548
a(lp624
F235.7100067138672
aF186.0500030517578
aF300.2300109863281
aF320.95001220703125
aa(lp625
F212.3000030517578
aF231.17999267578125
aF220.00999450683594
aF238.02000427246094
aaS'hit_obj'
p626
aF1.0
aa(lp627
I50511
a(lp628
F362.7699890136719
aF195.39999389648438
aF437.1099853515625
aF293.7200012207031
aa(lp629
F376.30999755859375
aF287.4700012207031
aF401.0199890136719
aF297.25
aaS'surf_instr'
p630
aF1.0
aa(lp631
I53518
a(lp632
F15.75
aF5.869999885559082
aF437.1199951171875
aF627.6799926757812
aa(lp633
F0.0
aF0.0
aF447.1400146484375
aF631.97998046875
aaS'lay_instr'
p634
aF1.0
aa(lp635
I54354
a(lp636
F27.389999389648438
aF123.95999908447266
aF367.6099853515625
aF604.1400146484375
aa(lp637
F277.0
aF27.079999923706055
aF324.739990234375
aF170.02000427246094
aaS'hit_instr'
p638
aF1.0
aa(lp639
I54928
a(lp640
F4.309999942779541
aF237.3000030517578
aF333.3800048828125
aF473.6099853515625
aa(lp641
F174.44000244140625
aF334.0199890136719
aF356.6300048828125
aF478.3900146484375
aaS'lay_instr'
p642
aF1.0
aa(lp643
I57169
a(lp644
F122.55000305175781
aF132.1199951171875
aF405.8900146484375
aF402.07000732421875
aa(lp645
F341.45001220703125
aF290.20001220703125
aF369.6400146484375
aF311.75
aaS'hit_instr'
p646
aF1.0
aa(lp647
I60155
a(lp648
F46.279998779296875
aF1.7899999618530273
aF639.0
aF474.3399963378906
aa(lp649
F0.0
aF134.22000122070312
aF639.0
aF369.07000732421875
aaS'point_instr'
p650
aF1.0
aa(lp651
I71376
a(lp652
F219.82000732421875
aF172.57000732421875
aF276.7799987792969
aF277.0899963378906
aa(lp653
F173.85000610351562
aF272.4200134277344
aF250.97999572753906
aF282.79998779296875
aaS'surf_instr'
p654
aF1.0
aa(lp655
I71376
a(lp656
F272.05999755859375
aF183.1699981689453
aF374.3699951171875
aF265.3299865722656
aa(lp657
F267.3800048828125
aF275.010009765625
aF302.739990234375
aF292.17999267578125
aaS'surf_instr'
p658
aF1.0
aa(lp659
I102473
a(lp660
F175.8000030517578
aF100.12999725341797
aF376.7799987792969
aF475.5400085449219
aa(lp661
F443.04998779296875
aF258.1099853515625
aF463.239990234375
aF278.1400146484375
aaS'hit_obj'
p662
aF1.0
aa(lp663
I108879
a(lp664
F46.29999923706055
aF59.58000183105469
aF543.1500244140625
aF627.030029296875
aa(lp665
F276.760009765625
aF52.61000061035156
aF434.32000732421875
aF146.75
aaS'hit_instr'
p666
aF1.0
aa(lp667
I108879
a(lp668
F46.29999923706055
aF59.58000183105469
aF543.1500244140625
aF627.030029296875
aa(lp669
F252.6699981689453
aF306.8299865722656
aF282.1000061035156
aF333.7799987792969
aaS'hit_obj'
p670
aF1.0
aa(lp671
I115296
a(lp672
F124.27999877929688
aF1.100000023841858
aF638.4299926757812
aF369.9200134277344
aa(lp673
F13.289999961853027
aF153.19000244140625
aF139.32000732421875
aF217.11000061035156
aaS'hit_instr'
p674
aF1.0
aa(lp675
I115296
a(lp676
F124.27999877929688
aF1.100000023841858
aF638.4299926757812
aF369.9200134277344
aa(lp677
F30.170000076293945
aF167.1999969482422
aF49.0099983215332
aF184.11000061035156
aaS'hit_obj'
p678
aF1.0
aa(lp679
I128462
a(lp680
F201.02999877929688
aF61.33000183105469
aF468.0799865722656
aF418.3599853515625
aa(lp681
F358.4599914550781
aF342.3999938964844
aF614.5599975585938
aF425.0
aaS'hit_instr'
p682
aF1.0
aa(lp683
I128963
a(lp684
F59.849998474121094
aF124.91000366210938
aF375.0199890136719
aF497.3299865722656
aa(lp685
F78.5
aF468.8699951171875
aF138.32000732421875
aF529.7100219726562
aaS'hit_obj'
p686
aF1.0
aa(lp687
I176157
a(lp688
F91.1500015258789
aF145.36000061035156
aF264.7699890136719
aF420.67999267578125
aa(lp689
F424.0799865722656
aF72.83999633789062
aF521.1599731445312
aF250.7100067138672
aaS'point_instr'
p690
aF1.0
aaa.